target datalayout = "e-m:e-p270:32:32-p271:32:32-p272:64:64-i64:64-i128:128-f80:128-n8:16:32:64-S128"
target triple = "x86_64-pc-linux-gnu"

%"struct.llvm::X86FoldTableEntry" = type { i32, i32, i16 }

; Function Attrs: mustprogress nounwind uwtable
define dso_local noundef i32 @_ZNK4llvm12X86InstrInfo26getOpcodeAfterMemoryUnfoldEjbbPj(ptr noundef nonnull align 8 dereferenceable(416) %0, i32 noundef %1, i1 noundef zeroext %2, i1 noundef zeroext %3, ptr noundef %4) unnamed_addr #0 align 2 {
  %6 = alloca i32, align 4
  %7 = alloca ptr, align 8
  %8 = alloca i32, align 4
  %9 = alloca i8, align 1
  %10 = alloca i8, align 1
  %11 = alloca ptr, align 8
  %12 = alloca ptr, align 8
  %13 = alloca i8, align 1
  %14 = alloca i8, align 1
  store ptr %0, ptr %7, align 8
  store i32 %1, ptr %8, align 4
  %15 = zext i1 %2 to i8
  store i8 %15, ptr %9, align 1
  %16 = zext i1 %3 to i8
  store i8 %16, ptr %10, align 1
  store ptr %4, ptr %11, align 8
  %17 = load i32, ptr %8, align 4
  %18 = call noundef ptr @_ZN4llvm17lookupUnfoldTableEj(i32 noundef %17)
  store ptr %18, ptr %12, align 8
  %19 = load ptr, ptr %12, align 8
  %20 = icmp eq ptr %19, null
  br i1 %20, label %21, label %22

21:                                               ; preds = %5
  store i32 0, ptr %6, align 4
  br label %64

22:                                               ; preds = %5
  %23 = load ptr, ptr %12, align 8
  %24 = getelementptr inbounds nuw %"struct.llvm::X86FoldTableEntry", ptr %23, i32 0, i32 2
  %25 = load i16, ptr %24, align 4
  %26 = zext i16 %25 to i32
  %27 = and i32 %26, 32
  %28 = icmp ne i32 %27, 0
  %29 = zext i1 %28 to i8
  store i8 %29, ptr %13, align 1
  %30 = load ptr, ptr %12, align 8
  %31 = getelementptr inbounds nuw %"struct.llvm::X86FoldTableEntry", ptr %30, i32 0, i32 2
  %32 = load i16, ptr %31, align 4
  %33 = zext i16 %32 to i32
  %34 = and i32 %33, 64
  %35 = icmp ne i32 %34, 0
  %36 = zext i1 %35 to i8
  store i8 %36, ptr %14, align 1
  %37 = load i8, ptr %9, align 1
  %38 = trunc i8 %37 to i1
  br i1 %38, label %39, label %43

39:                                               ; preds = %22
  %40 = load i8, ptr %13, align 1
  %41 = trunc i8 %40 to i1
  br i1 %41, label %43, label %42

42:                                               ; preds = %39
  store i32 0, ptr %6, align 4
  br label %64

43:                                               ; preds = %39, %22
  %44 = load i8, ptr %10, align 1
  %45 = trunc i8 %44 to i1
  br i1 %45, label %46, label %50

46:                                               ; preds = %43
  %47 = load i8, ptr %14, align 1
  %48 = trunc i8 %47 to i1
  br i1 %48, label %50, label %49

49:                                               ; preds = %46
  store i32 0, ptr %6, align 4
  br label %64

50:                                               ; preds = %46, %43
  %51 = load ptr, ptr %11, align 8
  %52 = icmp ne ptr %51, null
  br i1 %52, label %53, label %60

53:                                               ; preds = %50
  %54 = load ptr, ptr %12, align 8
  %55 = getelementptr inbounds nuw %"struct.llvm::X86FoldTableEntry", ptr %54, i32 0, i32 2
  %56 = load i16, ptr %55, align 4
  %57 = zext i16 %56 to i32
  %58 = and i32 %57, 7
  %59 = load ptr, ptr %11, align 8
  store i32 %58, ptr %59, align 4
  br label %60

60:                                               ; preds = %53, %50
  %61 = load ptr, ptr %12, align 8
  %62 = getelementptr inbounds nuw %"struct.llvm::X86FoldTableEntry", ptr %61, i32 0, i32 1
  %63 = load i32, ptr %62, align 4
  store i32 %63, ptr %6, align 4
  br label %64

64:                                               ; preds = %60, %49, %42, %21
  %65 = load i32, ptr %6, align 4
  ret i32 %65
}