; Function Attrs: mustprogress nounwind uwtable
define dso_local noundef i32 @_ZNK4llvm12X86InstrInfo26getOpcodeAfterMemoryUnfoldEjbbPj(ptr nonnull readnone align 8 captures(none) %0, i32 noundef %1, i1 noundef zeroext %2, i1 noundef zeroext %3, ptr noundef writeonly %4) unnamed_addr #1 align 2 {
  %6 = tail call noundef ptr @_ZN4llvm17lookupUnfoldTableEj(i32 noundef %1) #29
  %7 = icmp eq ptr %6, null
  br i1 %7, label %22, label %8

8:                                                ; preds = %5
  %9 = getelementptr inbounds nuw i8, ptr %6, i64 8
  %10 = load i16, ptr %9, align 4
  %11 = zext i16 %10 to i32
  %12 = and i32 %11, 32
  %.not = icmp eq i32 %12, 0
  %or.cond = select i1 %2, i1 %.not, i1 false
  br i1 %or.cond, label %22, label %13

13:                                               ; preds = %8
  %14 = and i32 %11, 64
  %.not14 = icmp eq i32 %14, 0
  %brmerge.not = select i1 %3, i1 %.not14, i1 false
  br i1 %brmerge.not, label %22, label %15

15:                                               ; preds = %13
  %.not15 = icmp eq ptr %4, null
  br i1 %.not15, label %19, label %16

16:                                               ; preds = %15
  %17 = and i16 %10, 7
  %18 = zext nneg i16 %17 to i32
  store i32 %18, ptr %4, align 4
  br label %19

19:                                               ; preds = %16, %15
  %20 = getelementptr inbounds nuw i8, ptr %6, i64 4
  %21 = load i32, ptr %20, align 4
  br label %22

22:                                               ; preds = %13, %8, %5, %19
  %.0 = phi i32 [ %21, %19 ], [ 0, %5 ], [ 0, %8 ], [ 0, %13 ]
  ret i32 %.0
}